; Function Attrs: null_pointer_is_valid sspstrong uwtable
define internal noundef i32 @decode_dataitem_v6addr(ptr noundef %0, ptr noundef readonly captures(none) %1, ptr noundef %2, ptr readnone captures(none) %3) #0 {
  %5 = tail call ptr @proto_tree_get_parent(ptr noundef %2)
  %6 = load i32, ptr @hf_dlep_dataitem_v6addr, align 4
  %7 = tail call ptr @proto_tree_add_item(ptr noundef %2, i32 noundef %6, ptr noundef %0, i32 noundef 0, i32 noundef 17, i32 noundef 0)
  %.not.i = icmp eq ptr %7, null
  br i1 %.not.i, label %proto_item_set_hidden.exit, label %8

8:                                                ; preds = %4
  %9 = getelementptr inbounds nuw i8, ptr %7, i64 40
  %10 = load ptr, ptr %9, align 8
  %.not5.i = icmp eq ptr %10, null
  br i1 %.not5.i, label %proto_item_set_hidden.exit, label %11

11:                                               ; preds = %8
  %12 = getelementptr inbounds nuw i8, ptr %10, i64 28
  %13 = load i32, ptr %12, align 4
  %14 = or i32 %13, 1
  store i32 %14, ptr %12, align 4
  br label %proto_item_set_hidden.exit

proto_item_set_hidden.exit:                       ; preds = %4, %8, %11
  %15 = load i32, ptr @hf_dlep_dataitem_v6addr_flags, align 4
  %16 = tail call ptr @proto_tree_add_item(ptr noundef %2, i32 noundef %15, ptr noundef %0, i32 noundef 0, i32 noundef 1, i32 noundef 0)
  %17 = load i32, ptr @ett_dlep_flags, align 4
  %18 = tail call ptr @proto_item_add_subtree(ptr noundef %16, i32 noundef %17)
  %19 = load i32, ptr @hf_dlep_dataitem_v6addr_flags_adddrop, align 4
  %20 = tail call ptr @proto_tree_add_item(ptr noundef %18, i32 noundef %19, ptr noundef %0, i32 noundef 0, i32 noundef 1, i32 noundef 0)
  %21 = tail call zeroext i8 @tvb_get_uint8(ptr noundef %0, i32 noundef 0)
  %22 = and i8 %21, 1
  %23 = icmp ne i8 %22, 0
  %24 = tail call ptr @tfs_get_string(i1 noundef zeroext %23, ptr noundef nonnull @tfs_add_drop)
  tail call void (ptr, ptr, ...) @proto_item_append_text(ptr noundef %5, ptr noundef nonnull @.str.213, ptr noundef %24)
  %25 = load i32, ptr @hf_dlep_dataitem_v6addr_addr, align 4
  %26 = tail call ptr @proto_tree_add_item(ptr noundef %2, i32 noundef %25, ptr noundef %0, i32 noundef 1, i32 noundef 16, i32 noundef 0)
  %27 = getelementptr inbounds nuw i8, ptr %1, i64 408
  %28 = load ptr, ptr %27, align 8
  %29 = tail call ptr @tvb_address_to_str(ptr noundef %28, ptr noundef %0, i32 noundef 3, i32 noundef 1)
  tail call void (ptr, ptr, ...) @proto_item_append_text(ptr noundef %5, ptr noundef nonnull @.str.214, ptr noundef %29)
  ret i32 17
}